target datalayout = "e-m:e-p270:32:32-p271:32:32-p272:64:64-i64:64-i128:128-f80:128-n8:16:32:64-S128"
target triple = "x86_64-pc-linux-gnu"

%struct.redisServer = type { i32, i64, ptr, ptr, ptr, i32, i32, i32, i32, i32, ptr, ptr, ptr, ptr, ptr, i32, i32, i32, i32, i64, i32, i32, i32, i32, ptr, i32, i32, [41 x i8], i32, i64, i32, i32, i32, ptr, ptr, i32, i32, i64, ptr, ptr, ptr, ptr, [2 x i32], i32, i32, i32, i32, i32, i32, [16 x ptr], i32, ptr, ptr, i32, [8 x %struct.connListener], i32, %struct.connListener, ptr, ptr, ptr, ptr, ptr, ptr, ptr, ptr, ptr, ptr, i32, ptr, i32, ptr, [3 x %struct.pause_event], [256 x i8], ptr, i64, i32, i32, [128 x i32], i32, i32, i64, i32, i32, i32, i32, i32, i64, i64, i64, i64, i64, i64, i64, i64, i64, i64, double, i64, i64, i64, i64, i64, i64, i64, i64, i64, i64, i64, i64, i64, i64, i64, i64, i64, i64, i64, i64, i64, double, i64, i64, i64, i64, i64, ptr, i64, i64, i64, %struct.malloc_stats, i64, i64, i64, i64, i64, i64, i64, i64, i64, i64, i64, i64, double, [4 x i64], i64, i64, i64, i64, [128 x i64], [128 x i64], i64, i64, [7 x %struct.anon], i64, i64, i64, i64, i64, i64, [4 x %struct.durationStats], i32, i32, i32, i32, i32, i32, i32, i32, i32, i32, i32, i32, i64, i32, i32, i32, i32, i64, i64, i32, i32, i32, i32, i32, ptr, [3 x %struct.clientBufferLimitsConfig], i32, i32, i32, ptr, i32, i32, i32, i32, i32, i32, ptr, ptr, i32, i32, i64, i64, i64, i64, i64, i32, i32, ptr, i32, i32, i64, i64, i64, i64, i64, i32, i32, i64, i32, i32, i32, i32, i32, i32, i32, i32, ptr, i32, i64, i64, i64, i64, i32, ptr, i32, ptr, i32, i32, i32, i64, i64, i64, i64, i32, i32, i32, i32, i32, i32, ptr, i32, i32, ptr, i32, i32, i32, [2 x i32], i32, %struct.redisOpArray, i32, ptr, i32, ptr, i32, i32, i32, i32, i32, i32, i32, [41 x i8], [41 x i8], i64, i64, i64, i64, i32, i32, ptr, i64, i64, %struct.replDataBuf, i64, i64, i32, i32, i32, i32, i32, i32, i32, i32, i32, i64, ptr, i64, ptr, ptr, ptr, i32, i32, ptr, ptr, i32, i32, i32, i64, i64, i64, i64, ptr, ptr, i32, ptr, i64, i32, i32, i32, i64, i32, i32, i32, i32, ptr, i32, i32, [41 x i8], i64, i32, ptr, i32, i32, i64, i64, i32, i32, i32, i32, i32, i64, [3 x i32], i32, i32, i32, [10 x i32], ptr, ptr, i32, i64, ptr, ptr, i32, i32, i32, i32, i64, i64, i64, i64, i64, i64, i64, i64, i64, i64, i32, i32, i64, i64, i32, i64, i64, i64, i64, i64, ptr, ptr, i32, ptr, i32, i32, i32, i32, i64, i64, ptr, ptr, i32, i32, i32, i32, i32, ptr, ptr, ptr, i32, i32, i32, i32, i32, i32, i32, i64, i32, i32, i64, i32, i32, i32, i32, i32, i32, i32, i64, ptr, ptr, i64, ptr, i32, %struct.aclInfo, i32, i64, i32, i32, i32, %struct.redisTLSContextConfig, ptr, ptr, ptr, ptr, ptr, i64, i32, ptr, i32, i32, i32, i64, i32, ptr }
%struct.connListener = type { [16 x i32], i32, ptr, i32, i32, ptr, ptr }
%struct.pause_event = type { i32, i64 }
%struct.malloc_stats = type { i64, i64, i64, i64, i64, i64, i64, i64, i64, i64, i64 }
%struct.anon = type { i64, i64, [16 x i64], i32 }
%struct.durationStats = type { i64, i64, i64 }
%struct.clientBufferLimitsConfig = type { i64, i64, i64 }
%struct.redisOpArray = type { ptr, i32, i32 }
%struct.replDataBuf = type { ptr, i64, i64, i64, i64 }
%struct.aclInfo = type { i64, i64, i64, i64 }
%struct.redisTLSContextConfig = type { ptr, ptr, ptr, ptr, ptr, ptr, ptr, ptr, ptr, ptr, ptr, ptr, i32, i32, i32, i32 }

@server = external global %struct.redisServer, align 8
@.str.3 = private unnamed_addr constant [31 x i8] c"Failed opening Unix socket: %s\00", align 1

; Function Attrs: nounwind uwtable
define internal i32 @connUnixListen(ptr noundef %0) #0 {
  %2 = alloca i32, align 4
  %3 = alloca ptr, align 8
  %4 = alloca i32, align 4
  %5 = alloca ptr, align 8
  %6 = alloca i32, align 4
  %7 = alloca i32, align 4
  %8 = alloca ptr, align 8
  store ptr %0, ptr %3, align 8, !tbaa !53
  call void @llvm.lifetime.start.p0(i64 4, ptr %4) #7
  call void @llvm.lifetime.start.p0(i64 8, ptr %5) #7
  %9 = load ptr, ptr %3, align 8, !tbaa !53
  %10 = getelementptr inbounds nuw %struct.connListener, ptr %9, i32 0, i32 6
  %11 = load ptr, ptr %10, align 8, !tbaa !55
  store ptr %11, ptr %5, align 8, !tbaa !50
  %12 = load ptr, ptr %3, align 8, !tbaa !53
  %13 = getelementptr inbounds nuw %struct.connListener, ptr %12, i32 0, i32 3
  %14 = load i32, ptr %13, align 8, !tbaa !56
  %15 = icmp eq i32 %14, 0
  br i1 %15, label %16, label %17

16:                                               ; preds = %1
  store i32 0, ptr %2, align 4
  store i32 1, ptr %6, align 4
  br label %68

17:                                               ; preds = %1
  call void @llvm.lifetime.start.p0(i64 4, ptr %7) #7
  store i32 0, ptr %7, align 4, !tbaa !12
  br label %18

18:                                               ; preds = %64, %17
  %19 = load i32, ptr %7, align 4, !tbaa !12
  %20 = load ptr, ptr %3, align 8, !tbaa !53
  %21 = getelementptr inbounds nuw %struct.connListener, ptr %20, i32 0, i32 3
  %22 = load i32, ptr %21, align 8, !tbaa !56
  %23 = icmp slt i32 %19, %22
  br i1 %23, label %25, label %24

24:                                               ; preds = %18
  store i32 2, ptr %6, align 4
  call void @llvm.lifetime.end.p0(i64 4, ptr %7) #7
  br label %67

25:                                               ; preds = %18
  call void @llvm.lifetime.start.p0(i64 8, ptr %8) #7
  %26 = load ptr, ptr %3, align 8, !tbaa !53
  %27 = getelementptr inbounds nuw %struct.connListener, ptr %26, i32 0, i32 2
  %28 = load ptr, ptr %27, align 8, !tbaa !57
  %29 = load i32, ptr %7, align 4, !tbaa !12
  %30 = sext i32 %29 to i64
  %31 = getelementptr inbounds ptr, ptr %28, i64 %30
  %32 = load ptr, ptr %31, align 8, !tbaa !48
  store ptr %32, ptr %8, align 8, !tbaa !48
  %33 = load ptr, ptr %8, align 8, !tbaa !48
  %34 = call i32 @unlink(ptr noundef %33) #7
  %35 = load ptr, ptr %8, align 8, !tbaa !48
  %36 = load ptr, ptr %5, align 8, !tbaa !50
  %37 = load i32, ptr %36, align 4, !tbaa !12
  %38 = load i32, ptr getelementptr inbounds nuw (%struct.redisServer, ptr @server, i32 0, i32 48), align 4, !tbaa !58
  %39 = call i32 @anetUnixServer(ptr noundef getelementptr inbounds nuw (%struct.redisServer, ptr @server, i32 0, i32 72), ptr noundef %35, i32 noundef %37, i32 noundef %38)
  store i32 %39, ptr %4, align 4, !tbaa !12
  %40 = load i32, ptr %4, align 4, !tbaa !12
  %41 = icmp eq i32 %40, -1
  br i1 %41, label %42, label %50

42:                                               ; preds = %25
  br label %43

43:                                               ; preds = %42
  %44 = load i32, ptr getelementptr inbounds nuw (%struct.redisServer, ptr @server, i32 0, i32 159), align 8, !tbaa !44
  %45 = icmp slt i32 3, %44
  br i1 %45, label %46, label %47

46:                                               ; preds = %43
  br label %49

47:                                               ; preds = %43
  call void (i32, ptr, ...) @_serverLog(i32 noundef 3, ptr noundef @.str.3, ptr noundef getelementptr inbounds nuw (%struct.redisServer, ptr @server, i32 0, i32 72))
  br label %48

48:                                               ; preds = %47
  br label %49

49:                                               ; preds = %48, %46
  call void @exit(i32 noundef 1) #9
  unreachable

50:                                               ; preds = %25
  %51 = load i32, ptr %4, align 4, !tbaa !12
  %52 = call i32 @anetNonBlock(ptr noundef null, i32 noundef %51)
  %53 = load i32, ptr %4, align 4, !tbaa !12
  %54 = call i32 @anetCloexec(i32 noundef %53)
  %55 = load i32, ptr %4, align 4, !tbaa !12
  %56 = load ptr, ptr %3, align 8, !tbaa !53
  %57 = getelementptr inbounds nuw %struct.connListener, ptr %56, i32 0, i32 0
  %58 = load ptr, ptr %3, align 8, !tbaa !53
  %59 = getelementptr inbounds nuw %struct.connListener, ptr %58, i32 0, i32 1
  %60 = load i32, ptr %59, align 8, !tbaa !59
  %61 = add nsw i32 %60, 1
  store i32 %61, ptr %59, align 8, !tbaa !59
  %62 = sext i32 %60 to i64
  %63 = getelementptr inbounds [16 x i32], ptr %57, i64 0, i64 %62
  store i32 %55, ptr %63, align 4, !tbaa !12
  call void @llvm.lifetime.end.p0(i64 8, ptr %8) #7
  br label %64

64:                                               ; preds = %50
  %65 = load i32, ptr %7, align 4, !tbaa !12
  %66 = add nsw i32 %65, 1
  store i32 %66, ptr %7, align 4, !tbaa !12
  br label %18, !llvm.loop !60

67:                                               ; preds = %24
  store i32 0, ptr %2, align 4
  store i32 1, ptr %6, align 4
  br label %68

68:                                               ; preds = %67, %16
  call void @llvm.lifetime.end.p0(i64 8, ptr %5) #7
  call void @llvm.lifetime.end.p0(i64 4, ptr %4) #7
  %69 = load i32, ptr %2, align 4
  ret i32 %69
}