; Function Attrs: nounwind uwtable
define internal noundef i32 @connUnixListen(ptr noundef captures(none) %0) #0 {
  %2 = getelementptr inbounds nuw i8, ptr %0, i64 96
  %3 = load ptr, ptr %2, align 8, !tbaa !53
  %4 = getelementptr inbounds nuw i8, ptr %0, i64 80
  %5 = load i32, ptr %4, align 8, !tbaa !54
  %6 = icmp sgt i32 %5, 0
  br i1 %6, label %.lr.ph, label %.loopexit

.lr.ph:                                           ; preds = %1
  %7 = getelementptr inbounds nuw i8, ptr %0, i64 72
  %8 = getelementptr inbounds nuw i8, ptr %0, i64 64
  br label %9

9:                                                ; preds = %.lr.ph, %23
  %indvars.iv = phi i64 [ 0, %.lr.ph ], [ %indvars.iv.next, %23 ]
  %10 = load ptr, ptr %7, align 8, !tbaa !55
  %11 = getelementptr inbounds nuw ptr, ptr %10, i64 %indvars.iv
  %12 = load ptr, ptr %11, align 8, !tbaa !56
  %13 = tail call i32 @unlink(ptr noundef %12) #8
  %14 = load i32, ptr %3, align 4, !tbaa !40
  %15 = load i32, ptr getelementptr inbounds nuw (i8, ptr @server, i64 324), align 4, !tbaa !57
  %16 = tail call i32 @anetUnixServer(ptr noundef nonnull getelementptr inbounds nuw (i8, ptr @server, i64 1592), ptr noundef %12, i32 noundef %14, i32 noundef %15) #8
  %17 = icmp eq i32 %16, -1
  br i1 %17, label %18, label %23

18:                                               ; preds = %9
  %19 = load i32, ptr getelementptr inbounds nuw (i8, ptr @server, i64 6288), align 8, !tbaa !41
  %20 = icmp sgt i32 %19, 3
  br i1 %20, label %22, label %21

21:                                               ; preds = %18
  tail call void (i32, ptr, ...) @_serverLog(i32 noundef 3, ptr noundef nonnull @.str.3, ptr noundef nonnull getelementptr inbounds nuw (i8, ptr @server, i64 1592)) #8
  br label %22

22:                                               ; preds = %18, %21
  tail call void @exit(i32 noundef 1) #11
  unreachable

23:                                               ; preds = %9
  %24 = tail call i32 @anetNonBlock(ptr noundef null, i32 noundef %16) #8
  %25 = tail call i32 @anetCloexec(i32 noundef %16) #8
  %26 = load i32, ptr %8, align 8, !tbaa !58
  %27 = add nsw i32 %26, 1
  store i32 %27, ptr %8, align 8, !tbaa !58
  %28 = sext i32 %26 to i64
  %29 = getelementptr inbounds [16 x i32], ptr %0, i64 0, i64 %28
  store i32 %16, ptr %29, align 4, !tbaa !40
  %indvars.iv.next = add nuw nsw i64 %indvars.iv, 1
  %30 = load i32, ptr %4, align 8, !tbaa !54
  %31 = sext i32 %30 to i64
  %32 = icmp slt i64 %indvars.iv.next, %31
  br i1 %32, label %9, label %.loopexit, !llvm.loop !59

.loopexit:                                        ; preds = %23, %1
  ret i32 0
}